target datalayout = "e-m:e-p270:32:32-p271:32:32-p272:64:64-i64:64-i128:128-f80:128-n8:16:32:64-S128"
target triple = "x86_64-pc-linux-gnu"

%struct.CRYPTO_REF_COUNT = type { i32 }
%struct.ecx_key_st = type { ptr, ptr, i8, [57 x i8], ptr, i64, i32, %struct.CRYPTO_REF_COUNT }
%struct.evp_pkey_ctx_st = type { i32, ptr, ptr, ptr, ptr, %union.anon, %struct.anon.5, ptr, ptr, ptr, i32, i32, ptr, ptr, ptr, ptr, ptr, i8, ptr }
%union.anon = type { %struct.anon.1 }
%struct.anon.1 = type { ptr, ptr }
%struct.anon.5 = type { ptr, ptr, i64, i8 }

@.str.8 = private unnamed_addr constant [32 x i8] c"../openssl/crypto/ec/ecx_meth.c\00", align 1
@__func__.pkey_ecd_digestverify25519 = private unnamed_addr constant [27 x i8] c"pkey_ecd_digestverify25519\00", align 1

; Function Attrs: nounwind uwtable
define internal i32 @pkey_ecd_digestverify25519(ptr noundef %0, ptr noundef %1, i64 noundef %2, ptr noundef %3, i64 noundef %4) #0 {
  %6 = alloca i32, align 4
  %7 = alloca ptr, align 8
  %8 = alloca ptr, align 8
  %9 = alloca i64, align 8
  %10 = alloca ptr, align 8
  %11 = alloca i64, align 8
  %12 = alloca ptr, align 8
  %13 = alloca i32, align 4
  store ptr %0, ptr %7, align 8, !tbaa !60
  store ptr %1, ptr %8, align 8, !tbaa !14
  store i64 %2, ptr %9, align 8, !tbaa !46
  store ptr %3, ptr %10, align 8, !tbaa !14
  store i64 %4, ptr %11, align 8, !tbaa !46
  call void @llvm.lifetime.start.p0(i64 8, ptr %12) #4
  %14 = load ptr, ptr %7, align 8, !tbaa !60
  %15 = call ptr @EVP_MD_CTX_get_pkey_ctx(ptr noundef %14)
  %16 = getelementptr inbounds nuw %struct.evp_pkey_ctx_st, ptr %15, i32 0, i32 14
  %17 = load ptr, ptr %16, align 8, !tbaa !82
  %18 = call ptr @evp_pkey_get_legacy(ptr noundef %17)
  store ptr %18, ptr %12, align 8, !tbaa !31
  %19 = load ptr, ptr %12, align 8, !tbaa !31
  %20 = icmp eq ptr %19, null
  br i1 %20, label %21, label %22

21:                                               ; preds = %5
  call void @ERR_new()
  call void @ERR_set_debug(ptr noundef @.str.8, i32 noundef 867, ptr noundef @__func__.pkey_ecd_digestverify25519)
  call void (i32, i32, ptr, ...) @ERR_set_error(i32 noundef 16, i32 noundef 116, ptr noundef null)
  store i32 0, ptr %6, align 4
  store i32 1, ptr %13, align 4
  br label %40

22:                                               ; preds = %5
  %23 = load i64, ptr %9, align 8, !tbaa !46
  %24 = icmp ne i64 %23, 64
  br i1 %24, label %25, label %26

25:                                               ; preds = %22
  store i32 0, ptr %6, align 4
  store i32 1, ptr %13, align 4
  br label %40

26:                                               ; preds = %22
  %27 = load ptr, ptr %10, align 8, !tbaa !14
  %28 = load i64, ptr %11, align 8, !tbaa !46
  %29 = load ptr, ptr %8, align 8, !tbaa !14
  %30 = load ptr, ptr %12, align 8, !tbaa !31
  %31 = getelementptr inbounds nuw %struct.ecx_key_st, ptr %30, i32 0, i32 3
  %32 = getelementptr inbounds [57 x i8], ptr %31, i64 0, i64 0
  %33 = load ptr, ptr %12, align 8, !tbaa !31
  %34 = getelementptr inbounds nuw %struct.ecx_key_st, ptr %33, i32 0, i32 0
  %35 = load ptr, ptr %34, align 8, !tbaa !84
  %36 = load ptr, ptr %12, align 8, !tbaa !31
  %37 = getelementptr inbounds nuw %struct.ecx_key_st, ptr %36, i32 0, i32 1
  %38 = load ptr, ptr %37, align 8, !tbaa !85
  %39 = call i32 @ossl_ed25519_verify(ptr noundef %27, i64 noundef %28, ptr noundef %29, ptr noundef %32, i8 noundef zeroext 0, i8 noundef zeroext 0, i8 noundef zeroext 0, ptr noundef null, i64 noundef 0, ptr noundef %35, ptr noundef %38)
  store i32 %39, ptr %6, align 4
  store i32 1, ptr %13, align 4
  br label %40

40:                                               ; preds = %26, %25, %21
  call void @llvm.lifetime.end.p0(i64 8, ptr %12) #4
  %41 = load i32, ptr %6, align 4
  ret i32 %41
}