; Function Attrs: nounwind uwtable
define internal i32 @pkey_ecd_digestverify25519(ptr noundef %0, ptr noundef %1, i64 noundef %2, ptr noundef %3, i64 noundef %4) #0 {
  %6 = tail call ptr @EVP_MD_CTX_get_pkey_ctx(ptr noundef %0) #8
  %7 = getelementptr inbounds nuw i8, ptr %6, i64 136
  %8 = load ptr, ptr %7, align 8, !tbaa !51
  %9 = tail call ptr @evp_pkey_get_legacy(ptr noundef %8) #8
  %10 = icmp eq ptr %9, null
  br i1 %10, label %11, label %12

11:                                               ; preds = %5
  tail call void @ERR_new() #8
  tail call void @ERR_set_debug(ptr noundef nonnull @.str.8, i32 noundef 867, ptr noundef nonnull @__func__.pkey_ecd_digestverify25519) #8
  tail call void (i32, i32, ptr, ...) @ERR_set_error(i32 noundef 16, i32 noundef 116, ptr noundef null) #8
  br label %19

12:                                               ; preds = %5
  %.not = icmp eq i64 %2, 64
  br i1 %.not, label %13, label %19

13:                                               ; preds = %12
  %14 = getelementptr inbounds nuw i8, ptr %9, i64 17
  %15 = load ptr, ptr %9, align 8, !tbaa !53
  %16 = getelementptr inbounds nuw i8, ptr %9, i64 8
  %17 = load ptr, ptr %16, align 8, !tbaa !54
  %18 = tail call i32 @ossl_ed25519_verify(ptr noundef %3, i64 noundef %4, ptr noundef %1, ptr noundef nonnull %14, i8 noundef zeroext 0, i8 noundef zeroext 0, i8 noundef zeroext 0, ptr noundef null, i64 noundef 0, ptr noundef %15, ptr noundef %17) #8
  br label %19

19:                                               ; preds = %12, %13, %11
  %.0 = phi i32 [ 0, %11 ], [ %18, %13 ], [ 0, %12 ]
  ret i32 %.0
}